; Function Attrs: nounwind uwtable
define internal fastcc void @freeattr(ptr noundef %0, ptr noundef nonnull readonly captures(none) %1) unnamed_addr #0 {
  %3 = tail call ptr @agraphof(ptr noundef %0) #12
  %4 = tail call ptr @agraphof(ptr noundef %0) #12
  %5 = tail call ptr @agroot(ptr noundef %4) #12
  %6 = load i32, ptr %0, align 8
  %7 = tail call ptr @aggetrec(ptr noundef %5, ptr noundef nonnull @DataDictName, i32 noundef 0) #12
  %.not.i.i.i = icmp eq ptr %7, null
  br i1 %.not.i.i.i, label %._crit_edge, label %switch.lookup

switch.lookup:                                    ; preds = %2
  %8 = and i32 %6, 3
  %9 = zext nneg i32 %8 to i64
  %switch.gep = getelementptr inbounds nuw [4 x i64], ptr @switch.table.agcopyattr, i64 0, i64 %9
  %switch.load = load i64, ptr %switch.gep, align 8
  %10 = getelementptr inbounds nuw i8, ptr %7, i64 %switch.load
  %.0.i.i = load ptr, ptr %10, align 8, !tbaa !34
  %.not.i = icmp eq ptr %.0.i.i, null
  br i1 %.not.i, label %._crit_edge, label %topdictsize.exit

topdictsize.exit:                                 ; preds = %switch.lookup
  %11 = tail call i32 @dtsize(ptr noundef nonnull %.0.i.i) #12
  %12 = icmp sgt i32 %11, 0
  br i1 %12, label %.lr.ph, label %._crit_edge

.lr.ph:                                           ; preds = %topdictsize.exit
  %13 = getelementptr inbounds nuw i8, ptr %1, i64 24
  %wide.trip.count = zext nneg i32 %11 to i64
  br label %14

14:                                               ; preds = %.lr.ph, %14
  %indvars.iv = phi i64 [ 0, %.lr.ph ], [ %indvars.iv.next, %14 ]
  %15 = load ptr, ptr %13, align 8, !tbaa !35
  %16 = getelementptr inbounds nuw ptr, ptr %15, i64 %indvars.iv
  %17 = load ptr, ptr %16, align 8, !tbaa !15
  %18 = tail call i32 @aghtmlstr(ptr noundef %17) #12
  %19 = icmp ne i32 %18, 0
  %20 = tail call i32 @agstrfree(ptr noundef %3, ptr noundef %17, i1 noundef zeroext %19) #12
  %indvars.iv.next = add nuw nsw i64 %indvars.iv, 1
  %exitcond.not = icmp eq i64 %indvars.iv.next, %wide.trip.count
  br i1 %exitcond.not, label %._crit_edge, label %14, !llvm.loop !48

._crit_edge:                                      ; preds = %14, %2, %switch.lookup, %topdictsize.exit
  %21 = getelementptr inbounds nuw i8, ptr %1, i64 24
  %22 = load ptr, ptr %21, align 8, !tbaa !35
  tail call void @free(ptr noundef %22) #12
  ret void
}